; Function Attrs: mustprogress uwtable
define void @_ZN7Imf_3_414TypedAttributeINS_14DeepImageStateEE13readValueFromERNS_7IStreamEii(ptr noundef nonnull writeonly align 8 captures(none) dereferenceable(12) initializes((8, 12)) %0, ptr noundef nonnull align 8 dereferenceable(40) %1, i32 %2, i32 %3) unnamed_addr #3 align 2 {
  %5 = alloca i8, align 1
  call void @llvm.lifetime.start.p0(i64 1, ptr nonnull %5) #15
  %6 = load ptr, ptr %1, align 8, !tbaa !3
  %7 = getelementptr inbounds nuw i8, ptr %6, i64 24
  %8 = load ptr, ptr %7, align 8
  %9 = call noundef zeroext i1 %8(ptr noundef nonnull align 8 dereferenceable(40) %1, ptr noundef nonnull align 1 dereferenceable(1) %5, i32 noundef 1)
  %10 = load i8, ptr %5, align 1, !tbaa !12
  %11 = zext i8 %10 to i32
  %12 = getelementptr inbounds nuw i8, ptr %0, i64 8
  store i32 %11, ptr %12, align 8, !tbaa !9
  call void @llvm.lifetime.end.p0(i64 1, ptr nonnull %5) #15
  ret void
}